target datalayout = "e-m:e-p270:32:32-p271:32:32-p272:64:64-i64:64-i128:128-f80:128-n8:16:32:64-S128"
target triple = "x86_64-pc-linux-gnu"

%class.FactUnion = type <{ %class.Fact.base, [4 x i8], ptr, i32, [4 x i8] }>
%class.Fact.base = type <{ ptr, i32 }>

; Function Attrs: mustprogress uwtable
define dso_local void @_ZN9FactUnionC2EPK8Variable(ptr noundef nonnull align 8 dereferenceable(28) %0, ptr noundef %1) unnamed_addr #4 align 2 {
  %3 = alloca ptr, align 8
  %4 = alloca ptr, align 8
  store ptr %0, ptr %3, align 8, !tbaa !4
  store ptr %1, ptr %4, align 8, !tbaa !9
  %5 = load ptr, ptr %3, align 8
  call void @_ZN4FactC2E13eFactCategory(ptr noundef nonnull align 8 dereferenceable(12) %5, i32 noundef 2)
  store ptr getelementptr inbounds inrange(-16, 152) ({ [21 x ptr] }, ptr @_ZTV9FactUnion, i32 0, i32 0, i32 2), ptr %5, align 8, !tbaa !11
  %6 = getelementptr inbounds nuw %class.FactUnion, ptr %5, i32 0, i32 2
  %7 = load ptr, ptr %4, align 8, !tbaa !9
  store ptr %7, ptr %6, align 8, !tbaa !13
  %8 = getelementptr inbounds nuw %class.FactUnion, ptr %5, i32 0, i32 3
  store i32 -2, ptr %8, align 8, !tbaa !18
  ret void
}