; Function Attrs: mustprogress uwtable
define dso_local void @_ZN9FactUnionC2EPK8Variable(ptr noundef nonnull align 8 dereferenceable(28) %0, ptr noundef %1) unnamed_addr #3 align 2 {
  tail call void @_ZN4FactC2E13eFactCategory(ptr noundef nonnull align 8 dereferenceable(12) %0, i32 noundef 2)
  store ptr getelementptr inbounds nuw inrange(-16, 152) (i8, ptr @_ZTV9FactUnion, i64 16), ptr %0, align 8, !tbaa !4
  %3 = getelementptr inbounds nuw i8, ptr %0, i64 16
  store ptr %1, ptr %3, align 8, !tbaa !7
  %4 = getelementptr inbounds nuw i8, ptr %0, i64 24
  store i32 -2, ptr %4, align 8, !tbaa !15
  ret void
}